target datalayout = "e-m:e-p270:32:32-p271:32:32-p272:64:64-i64:64-i128:128-f80:128-n8:16:32:64-S128"
target triple = "x86_64-pc-linux-gnu"

%struct.strvec = type { ptr, i64, i64 }
%struct.credential_capability = type { i8, [3 x i8] }
%struct.credential = type { %struct.string_list, %struct.strvec, %struct.strvec, %struct.strvec, i16, [2 x i8], %struct.credential_capability, %struct.credential_capability, ptr, ptr, ptr, ptr, ptr, ptr, ptr, i64, ptr }
%struct.string_list = type { ptr, i64, i64, i8, ptr }

; Function Attrs: nounwind uwtable
define dso_local void @credential_next_state(ptr noundef %0) #0 {
  %2 = alloca ptr, align 8
  %3 = alloca ptr, align 8
  %4 = alloca ptr, align 8
  %5 = alloca [24 x i8], align 16
  store ptr %0, ptr %2, align 8, !tbaa !4
  %6 = load ptr, ptr %2, align 8, !tbaa !4
  %7 = getelementptr inbounds nuw %struct.credential, ptr %6, i32 0, i32 3
  call void @strvec_clear(ptr noundef %7)
  br label %8

8:                                                ; preds = %1
  call void @llvm.lifetime.start.p0(i64 8, ptr %3) #10
  %9 = load ptr, ptr %2, align 8, !tbaa !4
  %10 = getelementptr inbounds nuw %struct.credential, ptr %9, i32 0, i32 2
  store ptr %10, ptr %3, align 8, !tbaa !26
  call void @llvm.lifetime.start.p0(i64 8, ptr %4) #10
  %11 = load ptr, ptr %2, align 8, !tbaa !4
  %12 = getelementptr inbounds nuw %struct.credential, ptr %11, i32 0, i32 3
  store ptr %12, ptr %4, align 8, !tbaa !26
  call void @llvm.lifetime.start.p0(i64 24, ptr %5) #10
  %13 = getelementptr inbounds [24 x i8], ptr %5, i64 0, i64 0
  %14 = load ptr, ptr %3, align 8, !tbaa !26
  call void @llvm.memcpy.p0.p0.i64(ptr align 16 %13, ptr align 1 %14, i64 24, i1 false)
  %15 = load ptr, ptr %3, align 8, !tbaa !26
  %16 = load ptr, ptr %4, align 8, !tbaa !26
  call void @llvm.memcpy.p0.p0.i64(ptr align 1 %15, ptr align 1 %16, i64 24, i1 false)
  %17 = load ptr, ptr %4, align 8, !tbaa !26
  %18 = getelementptr inbounds [24 x i8], ptr %5, i64 0, i64 0
  call void @llvm.memcpy.p0.p0.i64(ptr align 1 %17, ptr align 16 %18, i64 24, i1 false)
  call void @llvm.lifetime.end.p0(i64 24, ptr %5) #10
  call void @llvm.lifetime.end.p0(i64 8, ptr %4) #10
  call void @llvm.lifetime.end.p0(i64 8, ptr %3) #10
  br label %19

19:                                               ; preds = %8
  ret void
}