; Function Attrs: nounwind uwtable
define dso_local void @credential_next_state(ptr noundef %0) local_unnamed_addr #3 {
  %2 = alloca [24 x i8], align 16
  %3 = getelementptr inbounds nuw i8, ptr %0, i64 88
  tail call void @strvec_clear(ptr noundef nonnull %3) #19
  %4 = getelementptr inbounds nuw i8, ptr %0, i64 64
  call void @llvm.lifetime.start.p0(i64 24, ptr nonnull %2)
  call void @llvm.memcpy.p0.p0.i64(ptr noundef nonnull align 16 dereferenceable(24) %2, ptr noundef nonnull align 1 dereferenceable(24) %4, i64 24, i1 false)
  tail call void @llvm.memcpy.p0.p0.i64(ptr noundef nonnull align 1 dereferenceable(24) %4, ptr noundef nonnull align 1 dereferenceable(24) %3, i64 24, i1 false)
  call void @llvm.memcpy.p0.p0.i64(ptr noundef nonnull align 1 dereferenceable(24) %3, ptr noundef nonnull align 16 dereferenceable(24) %2, i64 24, i1 false)
  call void @llvm.lifetime.end.p0(i64 24, ptr nonnull %2)
  ret void
}